target datalayout = "e-m:e-p270:32:32-p271:32:32-p272:64:64-i64:64-i128:128-f80:128-n8:16:32:64-S128"
target triple = "x86_64-pc-linux-gnu"

%struct.pollfd = type { i32, i16, i16 }
%struct.timeval = type { i64, i64 }
%struct.job_step_specs = type { ptr, ptr, i32, i32, i32, i32, ptr, i16, i16, ptr, ptr, i32, ptr, i16, i64, ptr, ptr, i32, i32, ptr, ptr, i32, i16, i16, i16, i16, i32, ptr, %struct.slurm_step_id_msg, i32, i32, ptr, i32, i32, i16, ptr, ptr, ptr, ptr, ptr, ptr, i32 }
%struct.slurm_step_id_msg = type { i64, i32, i32, i32 }
%struct.slurm_step_ctx_struct = type { i16, i32, ptr, ptr, ptr, i16 }
%struct.job_step_create_response_msg = type { i32, i32, i32, ptr, ptr, ptr, ptr, ptr, ptr, i16 }
%struct.step_launch_state = type { %union.pthread_mutex_t, %union.pthread_cond_t, i32, ptr, ptr, ptr, i64, i8, ptr, i32, i8, i8, i8, i32, ptr, i64, i32, i16, ptr, ptr, ptr, [1 x %struct.mpi_step_info_t], ptr, i32, %struct.slurm_step_launch_callbacks_t }
%union.pthread_mutex_t = type { %struct.__pthread_mutex_s }
%struct.__pthread_mutex_s = type { i32, i32, i32, i32, i32, i16, i16, %struct.__pthread_internal_list }
%struct.__pthread_internal_list = type { ptr, ptr }
%union.pthread_cond_t = type { %struct.__pthread_cond_s }
%struct.__pthread_cond_s = type { %union.__atomic_wide_counter, %union.__atomic_wide_counter, [2 x i32], [2 x i32], i32, i32, [2 x i32] }
%union.__atomic_wide_counter = type { i64 }
%struct.mpi_step_info_t = type { i32, i32, %struct.slurm_step_id_msg, ptr }
%struct.slurm_step_launch_callbacks_t = type { ptr, ptr, ptr, ptr, ptr }

@step_signals = dso_local global [10 x i32] [i32 2, i32 3, i32 18, i32 15, i32 1, i32 14, i32 10, i32 12, i32 13, i32 0], align 16
@.str = private unnamed_addr constant [45 x i8] c"unable to initialize step request socket: %m\00", align 1
@destroy_step = internal global i32 0, align 4
@.str.1 = private unnamed_addr constant [42 x i8] c"Cancelled pending job step with signal %d\00", align 1
@.str.2 = private unnamed_addr constant [11 x i8] c"step_ctx.c\00", align 1
@__func__.step_ctx_create_timeout = private unnamed_addr constant [24 x i8] c"step_ctx_create_timeout\00", align 1

; Function Attrs: nounwind uwtable
define dso_local ptr @step_ctx_create_timeout(ptr noundef %0, i32 noundef %1, ptr noundef %2) #0 {
  %4 = alloca ptr, align 8
  %5 = alloca ptr, align 8
  %6 = alloca i32, align 4
  %7 = alloca ptr, align 8
  %8 = alloca ptr, align 8
  %9 = alloca ptr, align 8
  %10 = alloca i32, align 4
  %11 = alloca i32, align 4
  %12 = alloca i32, align 4
  %13 = alloca i32, align 4
  %14 = alloca i16, align 2
  %15 = alloca i32, align 4
  %16 = alloca i32, align 4
  %17 = alloca ptr, align 8
  %18 = alloca %struct.pollfd, align 4
  %19 = alloca i64, align 8
  %20 = alloca %struct.timeval, align 8
  %21 = alloca %struct.timeval, align 8
  %22 = alloca [20 x i8], align 16
  %23 = alloca i64, align 8
  %24 = alloca i32, align 4
  store ptr %0, ptr %5, align 8
  store i32 %1, ptr %6, align 4
  store ptr %2, ptr %7, align 8
  call void @llvm.lifetime.start.p0(i64 8, ptr %8) #7
  store ptr null, ptr %8, align 8
  call void @llvm.lifetime.start.p0(i64 8, ptr %9) #7
  store ptr null, ptr %9, align 8
  call void @llvm.lifetime.start.p0(i64 4, ptr %10) #7
  call void @llvm.lifetime.start.p0(i64 4, ptr %11) #7
  call void @llvm.lifetime.start.p0(i64 4, ptr %12) #7
  call void @llvm.lifetime.start.p0(i64 4, ptr %13) #7
  store i32 -1, ptr %13, align 4
  call void @llvm.lifetime.start.p0(i64 2, ptr %14) #7
  store i16 0, ptr %14, align 2
  call void @llvm.lifetime.start.p0(i64 4, ptr %15) #7
  store i32 0, ptr %15, align 4
  call void @llvm.lifetime.start.p0(i64 4, ptr %16) #7
  call void @llvm.lifetime.start.p0(i64 8, ptr %17) #7
  call void @llvm.lifetime.start.p0(i64 8, ptr %18) #7
  call void @llvm.lifetime.start.p0(i64 8, ptr %19) #7
  call void @llvm.lifetime.start.p0(i64 16, ptr %20) #7
  call void @llvm.lifetime.start.p0(i64 16, ptr %21) #7
  call void @llvm.lifetime.start.p0(i64 20, ptr %22) #7
  call void @llvm.memset.p0.i64(ptr align 16 %22, i8 0, i64 20, i1 false)
  call void @llvm.lifetime.start.p0(i64 8, ptr %23) #7
  %25 = call ptr @slurm_get_srun_port_range()
  store ptr %25, ptr %17, align 8
  %26 = icmp ne ptr %25, null
  br i1 %26, label %27, label %30

27:                                               ; preds = %3
  %28 = load ptr, ptr %17, align 8
  %29 = call i32 @net_stream_listen_ports(ptr noundef %13, ptr noundef %14, ptr noundef %28, i1 noundef zeroext false)
  store i32 %29, ptr %16, align 4
  br label %32

30:                                               ; preds = %3
  %31 = call i32 @net_stream_listen(ptr noundef %13, ptr noundef %14)
  store i32 %31, ptr %16, align 4
  br label %32

32:                                               ; preds = %30, %27
  %33 = load i32, ptr %16, align 4
  %34 = icmp slt i32 %33, 0
  br i1 %34, label %35, label %37

35:                                               ; preds = %32
  %36 = call i32 (ptr, ...) @error(ptr noundef @.str)
  store ptr null, ptr %4, align 8
  store i32 1, ptr %24, align 4
  br label %206

37:                                               ; preds = %32
  %38 = load i16, ptr %14, align 2
  %39 = load ptr, ptr %5, align 8
  %40 = getelementptr inbounds nuw %struct.job_step_specs, ptr %39, i32 0, i32 23
  store i16 %38, ptr %40, align 2
  %41 = load ptr, ptr %5, align 8
  %42 = call i32 @slurm_job_step_create(ptr noundef %41, ptr noundef %9)
  store i32 %42, ptr %11, align 4
  %43 = load i32, ptr %11, align 4
  %44 = icmp slt i32 %43, 0
  br i1 %44, label %45, label %137

45:                                               ; preds = %37
  %46 = call ptr @__errno_location() #8
  %47 = load i32, ptr %46, align 4
  %48 = call zeroext i1 @launch_common_step_retry_errno(i32 noundef %47)
  br i1 %48, label %49, label %137

49:                                               ; preds = %45
  %50 = call i32 @gettimeofday(ptr noundef %20, ptr noundef null) #7
  %51 = call ptr @__errno_location() #8
  %52 = load i32, ptr %51, align 4
  store i32 %52, ptr %15, align 4
  %53 = load i32, ptr %13, align 4
  %54 = getelementptr inbounds nuw %struct.pollfd, ptr %18, i32 0, i32 0
  store i32 %53, ptr %54, align 4
  %55 = getelementptr inbounds nuw %struct.pollfd, ptr %18, i32 0, i32 1
  store i16 1, ptr %55, align 4
  %56 = call i32 @xsignal_unblock(ptr noundef @step_signals)
  store i32 0, ptr %10, align 4
  br label %57

57:                                               ; preds = %69, %49
  %58 = load i32, ptr %10, align 4
  %59 = sext i32 %58 to i64
  %60 = getelementptr inbounds [10 x i32], ptr @step_signals, i64 0, i64 %59
  %61 = load i32, ptr %60, align 4
  %62 = icmp ne i32 %61, 0
  br i1 %62, label %63, label %72

63:                                               ; preds = %57
  %64 = load i32, ptr %10, align 4
  %65 = sext i32 %64 to i64
  %66 = getelementptr inbounds [10 x i32], ptr @step_signals, i64 0, i64 %65
  %67 = load i32, ptr %66, align 4
  %68 = call ptr @xsignal(i32 noundef %67, ptr noundef @_signal_while_allocating)
  br label %69

69:                                               ; preds = %63
  %70 = load i32, ptr %10, align 4
  %71 = add nsw i32 %70, 1
  store i32 %71, ptr %10, align 4
  br label %57, !llvm.loop !8

72:                                               ; preds = %57
  br label %73

73:                                               ; preds = %114, %72
  br label %74

74:                                               ; preds = %73
  br label %75

75:                                               ; preds = %74
  %76 = call i32 @gettimeofday(ptr noundef %21, ptr noundef null) #7
  %77 = getelementptr inbounds [20 x i8], ptr %22, i64 0, i64 0
  call void @slurm_diff_tv_str(ptr noundef %20, ptr noundef %21, ptr noundef %77, i32 noundef 20, ptr noundef null, i64 noundef 0, ptr noundef %23)
  br label %78

78:                                               ; preds = %75
  br label %79

79:                                               ; preds = %78
  %80 = load i64, ptr %23, align 8
  %81 = sdiv i64 %80, 1000
  store i64 %81, ptr %19, align 8
  %82 = load i64, ptr %19, align 8
  %83 = load i32, ptr %6, align 4
  %84 = sext i32 %83 to i64
  %85 = icmp sge i64 %82, %84
  br i1 %85, label %86, label %87

86:                                               ; preds = %79
  br label %116

87:                                               ; preds = %79
  %88 = load i32, ptr %6, align 4
  %89 = sext i32 %88 to i64
  %90 = load i64, ptr %19, align 8
  %91 = sub nsw i64 %89, %90
  %92 = trunc i64 %91 to i32
  store i32 %92, ptr %12, align 4
  %93 = load i32, ptr %12, align 4
  %94 = call i32 @poll(ptr noundef %18, i64 noundef 1, i32 noundef %93)
  store i32 %94, ptr %10, align 4
  %95 = load i32, ptr %10, align 4
  %96 = icmp eq i32 %95, 0
  br i1 %96, label %97, label %99

97:                                               ; preds = %87
  %98 = load ptr, ptr %7, align 8
  store i8 1, ptr %98, align 1
  br label %99

99:                                               ; preds = %97, %87
  %100 = load i32, ptr %10, align 4
  %101 = icmp sge i32 %100, 0
  br i1 %101, label %105, label %102

102:                                              ; preds = %99
  %103 = load i32, ptr @destroy_step, align 4
  %104 = icmp ne i32 %103, 0
  br i1 %104, label %105, label %106

105:                                              ; preds = %102, %99
  br label %116

106:                                              ; preds = %102
  %107 = call ptr @__errno_location() #8
  %108 = load i32, ptr %107, align 4
  %109 = icmp eq i32 %108, 4
  br i1 %109, label %114, label %110

110:                                              ; preds = %106
  %111 = call ptr @__errno_location() #8
  %112 = load i32, ptr %111, align 4
  %113 = icmp eq i32 %112, 11
  br i1 %113, label %114, label %115

114:                                              ; preds = %110, %106
  br label %73, !llvm.loop !11

115:                                              ; preds = %110
  br label %116

116:                                              ; preds = %115, %105, %86
  %117 = call i32 @xsignal_block(ptr noundef @step_signals)
  %118 = load i32, ptr @destroy_step, align 4
  %119 = icmp ne i32 %118, 0
  br i1 %119, label %120, label %132

120:                                              ; preds = %116
  br label %121

121:                                              ; preds = %120
  br label %122

122:                                              ; preds = %121
  %123 = call i32 @get_log_level()
  %124 = icmp sge i32 %123, 3
  br i1 %124, label %125, label %127

125:                                              ; preds = %122
  %126 = load i32, ptr @destroy_step, align 4
  call void (i32, ptr, ...) @log_var(i32 noundef 3, ptr noundef @.str.1, i32 noundef %126)
  br label %127

127:                                              ; preds = %125, %122
  br label %128

128:                                              ; preds = %127
  br label %129

129:                                              ; preds = %128
  br label %130

130:                                              ; preds = %129
  br label %131

131:                                              ; preds = %130
  store i32 2021, ptr %15, align 4
  br label %132

132:                                              ; preds = %131, %116
  %133 = load i32, ptr %13, align 4
  %134 = call i32 @close(i32 noundef %133)
  %135 = load i32, ptr %15, align 4
  %136 = call ptr @__errno_location() #8
  store i32 %135, ptr %136, align 4
  br label %204

137:                                              ; preds = %45, %37
  %138 = load i32, ptr %11, align 4
  %139 = icmp slt i32 %138, 0
  br i1 %139, label %143, label %140

140:                                              ; preds = %137
  %141 = load ptr, ptr %9, align 8
  %142 = icmp eq ptr %141, null
  br i1 %142, label %143, label %146

143:                                              ; preds = %140, %137
  %144 = load i32, ptr %13, align 4
  %145 = call i32 @close(i32 noundef %144)
  br label %203

146:                                              ; preds = %140
  %147 = call ptr @slurm_xcalloc(i64 noundef 1, i64 noundef 40, i1 noundef zeroext true, i1 noundef zeroext false, ptr noundef @.str.2, i32 noundef 204, ptr noundef @__func__.step_ctx_create_timeout)
  store ptr %147, ptr %8, align 8
  %148 = load ptr, ptr %8, align 8
  %149 = getelementptr inbounds nuw %struct.slurm_step_ctx_struct, ptr %148, i32 0, i32 4
  store ptr null, ptr %149, align 8
  %150 = load ptr, ptr %8, align 8
  %151 = getelementptr inbounds nuw %struct.slurm_step_ctx_struct, ptr %150, i32 0, i32 0
  store i16 -14429, ptr %151, align 8
  %152 = load ptr, ptr %5, align 8
  %153 = getelementptr inbounds nuw %struct.job_step_specs, ptr %152, i32 0, i32 28
  %154 = getelementptr inbounds nuw %struct.slurm_step_id_msg, ptr %153, i32 0, i32 1
  %155 = load i32, ptr %154, align 8
  %156 = load ptr, ptr %8, align 8
  %157 = getelementptr inbounds nuw %struct.slurm_step_ctx_struct, ptr %156, i32 0, i32 1
  store i32 %155, ptr %157, align 4
  %158 = load ptr, ptr %5, align 8
  %159 = load ptr, ptr %8, align 8
  %160 = getelementptr inbounds nuw %struct.slurm_step_ctx_struct, ptr %159, i32 0, i32 2
  store ptr %158, ptr %160, align 8
  %161 = load ptr, ptr %5, align 8
  %162 = getelementptr inbounds nuw %struct.job_step_specs, ptr %161, i32 0, i32 28
  %163 = getelementptr inbounds nuw %struct.slurm_step_id_msg, ptr %162, i32 0, i32 3
  %164 = load i32, ptr %163, align 8
  %165 = icmp eq i32 %164, -2
  br i1 %165, label %166, label %173

166:                                              ; preds = %146
  %167 = load ptr, ptr %9, align 8
  %168 = getelementptr inbounds nuw %struct.job_step_create_response_msg, ptr %167, i32 0, i32 2
  %169 = load i32, ptr %168, align 8
  %170 = load ptr, ptr %5, align 8
  %171 = getelementptr inbounds nuw %struct.job_step_specs, ptr %170, i32 0, i32 28
  %172 = getelementptr inbounds nuw %struct.slurm_step_id_msg, ptr %171, i32 0, i32 3
  store i32 %169, ptr %172, align 8
  br label %173

173:                                              ; preds = %166, %146
  %174 = load ptr, ptr %5, align 8
  %175 = getelementptr inbounds nuw %struct.job_step_specs, ptr %174, i32 0, i32 29
  %176 = load i32, ptr %175, align 8
  %177 = icmp ne i32 %176, -2
  br i1 %177, label %178, label %190

178:                                              ; preds = %173
  %179 = load ptr, ptr %9, align 8
  %180 = getelementptr inbounds nuw %struct.job_step_create_response_msg, ptr %179, i32 0, i32 1
  %181 = load i32, ptr %180, align 4
  %182 = load ptr, ptr %5, align 8
  %183 = getelementptr inbounds nuw %struct.job_step_specs, ptr %182, i32 0, i32 28
  %184 = getelementptr inbounds nuw %struct.slurm_step_id_msg, ptr %183, i32 0, i32 1
  store i32 %181, ptr %184, align 8
  %185 = load ptr, ptr %9, align 8
  %186 = getelementptr inbounds nuw %struct.job_step_create_response_msg, ptr %185, i32 0, i32 1
  %187 = load i32, ptr %186, align 4
  %188 = load ptr, ptr %8, align 8
  %189 = getelementptr inbounds nuw %struct.slurm_step_ctx_struct, ptr %188, i32 0, i32 1
  store i32 %187, ptr %189, align 4
  br label %190

190:                                              ; preds = %178, %173
  %191 = load ptr, ptr %9, align 8
  %192 = load ptr, ptr %8, align 8
  %193 = getelementptr inbounds nuw %struct.slurm_step_ctx_struct, ptr %192, i32 0, i32 3
  store ptr %191, ptr %193, align 8
  %194 = load ptr, ptr %8, align 8
  %195 = call ptr @step_launch_state_create(ptr noundef %194)
  %196 = load ptr, ptr %8, align 8
  %197 = getelementptr inbounds nuw %struct.slurm_step_ctx_struct, ptr %196, i32 0, i32 4
  store ptr %195, ptr %197, align 8
  %198 = load i32, ptr %13, align 4
  %199 = load ptr, ptr %8, align 8
  %200 = getelementptr inbounds nuw %struct.slurm_step_ctx_struct, ptr %199, i32 0, i32 4
  %201 = load ptr, ptr %200, align 8
  %202 = getelementptr inbounds nuw %struct.step_launch_state, ptr %201, i32 0, i32 16
  store i32 %198, ptr %202, align 8
  br label %203

203:                                              ; preds = %190, %143
  br label %204

204:                                              ; preds = %203, %132
  %205 = load ptr, ptr %8, align 8
  store ptr %205, ptr %4, align 8
  store i32 1, ptr %24, align 4
  br label %206

206:                                              ; preds = %204, %35
  call void @llvm.lifetime.end.p0(i64 8, ptr %23) #7
  call void @llvm.lifetime.end.p0(i64 20, ptr %22) #7
  call void @llvm.lifetime.end.p0(i64 16, ptr %21) #7
  call void @llvm.lifetime.end.p0(i64 16, ptr %20) #7
  call void @llvm.lifetime.end.p0(i64 8, ptr %19) #7
  call void @llvm.lifetime.end.p0(i64 8, ptr %18) #7
  call void @llvm.lifetime.end.p0(i64 8, ptr %17) #7
  call void @llvm.lifetime.end.p0(i64 4, ptr %16) #7
  call void @llvm.lifetime.end.p0(i64 4, ptr %15) #7
  call void @llvm.lifetime.end.p0(i64 2, ptr %14) #7
  call void @llvm.lifetime.end.p0(i64 4, ptr %13) #7
  call void @llvm.lifetime.end.p0(i64 4, ptr %12) #7
  call void @llvm.lifetime.end.p0(i64 4, ptr %11) #7
  call void @llvm.lifetime.end.p0(i64 4, ptr %10) #7
  call void @llvm.lifetime.end.p0(i64 8, ptr %9) #7
  call void @llvm.lifetime.end.p0(i64 8, ptr %8) #7
  %207 = load ptr, ptr %4, align 8
  ret ptr %207
}