; Function Attrs: nounwind uwtable
define dso_local noundef ptr @step_ctx_create_timeout(ptr noundef %0, i32 noundef %1, ptr noundef writeonly captures(none) %2) local_unnamed_addr #0 {
  %4 = alloca ptr, align 8
  %5 = alloca i32, align 4
  %6 = alloca i16, align 2
  %7 = alloca %struct.pollfd, align 4
  %8 = alloca %struct.timeval, align 8
  %9 = alloca %struct.timeval, align 8
  %10 = alloca [20 x i8], align 16
  %11 = alloca i64, align 8
  call void @llvm.lifetime.start.p0(i64 8, ptr nonnull %4) #8
  store ptr null, ptr %4, align 8
  call void @llvm.lifetime.start.p0(i64 4, ptr nonnull %5) #8
  store i32 -1, ptr %5, align 4
  call void @llvm.lifetime.start.p0(i64 2, ptr nonnull %6) #8
  store i16 0, ptr %6, align 2
  call void @llvm.lifetime.start.p0(i64 8, ptr nonnull %7) #8
  call void @llvm.lifetime.start.p0(i64 16, ptr nonnull %8) #8
  call void @llvm.lifetime.start.p0(i64 16, ptr nonnull %9) #8
  call void @llvm.lifetime.start.p0(i64 20, ptr nonnull %10) #8
  call void @llvm.memset.p0.i64(ptr noundef nonnull align 16 dereferenceable(20) %10, i8 0, i64 20, i1 false)
  call void @llvm.lifetime.start.p0(i64 8, ptr nonnull %11) #8
  %12 = tail call ptr @slurm_get_srun_port_range() #8
  %.not = icmp eq ptr %12, null
  br i1 %.not, label %15, label %13

13:                                               ; preds = %3
  %14 = call i32 @net_stream_listen_ports(ptr noundef nonnull %5, ptr noundef nonnull %6, ptr noundef nonnull %12, i1 noundef zeroext false) #8
  br label %17

15:                                               ; preds = %3
  %16 = call i32 @net_stream_listen(ptr noundef nonnull %5, ptr noundef nonnull %6) #8
  br label %17

17:                                               ; preds = %15, %13
  %.038 = phi i32 [ %14, %13 ], [ %16, %15 ]
  %18 = icmp slt i32 %.038, 0
  br i1 %18, label %19, label %21

19:                                               ; preds = %17
  %20 = call i32 (ptr, ...) @error(ptr noundef nonnull @.str) #8
  br label %97

21:                                               ; preds = %17
  %22 = load i16, ptr %6, align 2
  %23 = getelementptr inbounds nuw i8, ptr %0, i64 142
  store i16 %22, ptr %23, align 2
  %24 = call i32 @slurm_job_step_create(ptr noundef %0, ptr noundef nonnull %4) #8
  %25 = icmp slt i32 %24, 0
  br i1 %25, label %26, label %67

26:                                               ; preds = %21
  %27 = tail call ptr @__errno_location() #9
  %28 = load i32, ptr %27, align 4
  %29 = call zeroext i1 @launch_common_step_retry_errno(i32 noundef %28) #8
  br i1 %29, label %30, label %.thread51

30:                                               ; preds = %26
  %31 = call i32 @gettimeofday(ptr noundef nonnull %8, ptr noundef null) #8
  %32 = load i32, ptr %27, align 4
  %33 = load i32, ptr %5, align 4
  store i32 %33, ptr %7, align 4
  %34 = getelementptr inbounds nuw i8, ptr %7, i64 4
  store i16 1, ptr %34, align 4
  %35 = call i32 @xsignal_unblock(ptr noundef nonnull @step_signals) #8
  %36 = load i32, ptr @step_signals, align 16
  %.not4753 = icmp eq i32 %36, 0
  br i1 %.not4753, label %.preheader, label %.lr.ph

.preheader:                                       ; preds = %.lr.ph, %30
  %37 = sext i32 %1 to i64
  br label %42

.lr.ph:                                           ; preds = %30, %.lr.ph
  %indvars.iv = phi i64 [ %indvars.iv.next, %.lr.ph ], [ 0, %30 ]
  %38 = phi i32 [ %41, %.lr.ph ], [ %36, %30 ]
  %39 = call ptr @xsignal(i32 noundef %38, ptr noundef nonnull @_signal_while_allocating) #8
  %indvars.iv.next = add nuw nsw i64 %indvars.iv, 1
  %40 = getelementptr inbounds nuw [10 x i32], ptr @step_signals, i64 0, i64 %indvars.iv.next
  %41 = load i32, ptr %40, align 4
  %.not47 = icmp eq i32 %41, 0
  br i1 %.not47, label %.preheader, label %.lr.ph, !llvm.loop !8

42:                                               ; preds = %.backedge, %.preheader
  %43 = call i32 @gettimeofday(ptr noundef nonnull %9, ptr noundef null) #8
  call void @slurm_diff_tv_str(ptr noundef nonnull %8, ptr noundef nonnull %9, ptr noundef nonnull %10, i32 noundef 20, ptr noundef null, i64 noundef 0, ptr noundef nonnull %11) #8
  %44 = load i64, ptr %11, align 8
  %45 = sdiv i64 %44, 1000
  %.not48 = icmp slt i64 %45, %37
  br i1 %.not48, label %46, label %.loopexit

46:                                               ; preds = %42
  %47 = trunc i64 %45 to i32
  %48 = sub i32 %1, %47
  %49 = call i32 @poll(ptr noundef nonnull %7, i64 noundef 1, i32 noundef %48) #8
  %50 = icmp eq i32 %49, 0
  br i1 %50, label %.thread, label %51

.thread:                                          ; preds = %46
  store i8 1, ptr %2, align 1
  br label %.loopexit

51:                                               ; preds = %46
  %52 = icmp sgt i32 %49, -1
  %53 = load i32, ptr @destroy_step, align 4
  %54 = icmp ne i32 %53, 0
  %or.cond = select i1 %52, i1 true, i1 %54
  br i1 %or.cond, label %.loopexit, label %55

55:                                               ; preds = %51
  %56 = load i32, ptr %27, align 4
  switch i32 %56, label %.loopexit [
    i32 4, label %.backedge
    i32 11, label %.backedge
  ]

.backedge:                                        ; preds = %55, %55
  br label %42, !llvm.loop !11

.loopexit:                                        ; preds = %55, %51, %42, %.thread
  %57 = call i32 @xsignal_block(ptr noundef nonnull @step_signals) #8
  %58 = load i32, ptr @destroy_step, align 4
  %.not49 = icmp eq i32 %58, 0
  br i1 %.not49, label %64, label %59

59:                                               ; preds = %.loopexit
  %60 = call i32 @get_log_level() #8
  %61 = icmp sgt i32 %60, 2
  br i1 %61, label %62, label %64

62:                                               ; preds = %59
  %63 = load i32, ptr @destroy_step, align 4
  call void (i32, ptr, ...) @log_var(i32 noundef 3, ptr noundef nonnull @.str.1, i32 noundef %63) #8
  br label %64

64:                                               ; preds = %59, %62, %.loopexit
  %.039 = phi i32 [ %32, %.loopexit ], [ 2021, %62 ], [ 2021, %59 ]
  %65 = load i32, ptr %5, align 4
  %66 = call i32 @close(i32 noundef %65) #8
  store i32 %.039, ptr %27, align 4
  br label %97

67:                                               ; preds = %21
  %68 = load ptr, ptr %4, align 8
  %69 = icmp eq ptr %68, null
  br i1 %69, label %.thread51, label %72

.thread51:                                        ; preds = %26, %67
  %70 = load i32, ptr %5, align 4
  %71 = call i32 @close(i32 noundef %70) #8
  br label %97

72:                                               ; preds = %67
  %73 = call ptr @slurm_xcalloc(i64 noundef 1, i64 noundef 40, i1 noundef zeroext true, i1 noundef zeroext false, ptr noundef nonnull @.str.2, i32 noundef 204, ptr noundef nonnull @__func__.step_ctx_create_timeout) #8
  %74 = getelementptr inbounds nuw i8, ptr %73, i64 24
  store ptr null, ptr %74, align 8
  store i16 -14429, ptr %73, align 8
  %75 = getelementptr inbounds nuw i8, ptr %0, i64 168
  %76 = load i32, ptr %75, align 8
  %77 = getelementptr inbounds nuw i8, ptr %73, i64 4
  store i32 %76, ptr %77, align 4
  %78 = getelementptr inbounds nuw i8, ptr %73, i64 8
  store ptr %0, ptr %78, align 8
  %79 = getelementptr inbounds nuw i8, ptr %0, i64 176
  %80 = load i32, ptr %79, align 8
  %81 = icmp eq i32 %80, -2
  %.pre56.pre = load ptr, ptr %4, align 8
  br i1 %81, label %82, label %85

82:                                               ; preds = %72
  %83 = getelementptr inbounds nuw i8, ptr %.pre56.pre, i64 8
  %84 = load i32, ptr %83, align 8
  store i32 %84, ptr %79, align 8
  br label %85

85:                                               ; preds = %82, %72
  %86 = getelementptr inbounds nuw i8, ptr %0, i64 184
  %87 = load i32, ptr %86, align 8
  %.not46 = icmp eq i32 %87, -2
  br i1 %.not46, label %91, label %88

88:                                               ; preds = %85
  %89 = getelementptr inbounds nuw i8, ptr %.pre56.pre, i64 4
  %90 = load i32, ptr %89, align 4
  store i32 %90, ptr %75, align 8
  store i32 %90, ptr %77, align 4
  %.pre = load ptr, ptr %4, align 8
  br label %91

91:                                               ; preds = %88, %85
  %92 = phi ptr [ %.pre, %88 ], [ %.pre56.pre, %85 ]
  %93 = getelementptr inbounds nuw i8, ptr %73, i64 16
  store ptr %92, ptr %93, align 8
  %94 = call ptr @step_launch_state_create(ptr noundef nonnull %73) #8
  store ptr %94, ptr %74, align 8
  %95 = load i32, ptr %5, align 4
  %96 = getelementptr inbounds nuw i8, ptr %94, i64 176
  store i32 %95, ptr %96, align 8
  br label %97

97:                                               ; preds = %64, %91, %.thread51, %19
  %.0 = phi ptr [ null, %19 ], [ null, %64 ], [ null, %.thread51 ], [ %73, %91 ]
  call void @llvm.lifetime.end.p0(i64 8, ptr nonnull %11) #8
  call void @llvm.lifetime.end.p0(i64 20, ptr nonnull %10) #8
  call void @llvm.lifetime.end.p0(i64 16, ptr nonnull %9) #8
  call void @llvm.lifetime.end.p0(i64 16, ptr nonnull %8) #8
  call void @llvm.lifetime.end.p0(i64 8, ptr nonnull %7) #8
  call void @llvm.lifetime.end.p0(i64 2, ptr nonnull %6) #8
  call void @llvm.lifetime.end.p0(i64 4, ptr nonnull %5) #8
  call void @llvm.lifetime.end.p0(i64 8, ptr nonnull %4) #8
  ret ptr %.0
}